(lp0
(lp1
I12
aI47
aI67
aI71
aI142
aI190
aI233
aI345
aI415
aI536
aI583
aI593
aI647
aI656
aI764
aI782
aI792
aI900
aI1000
aa(lp2
I7
aI74
aI94
aI159
aI177
aI211
aI289
aI306
aI479
aI518
aI557
aI676
aI751
aI761
aI763
aI838
aI848
aI857
aI1037
aa(lp3
I79
aI87
aI194
aI274
aI466
aI477
aI524
aI571
aI646
aI860
aI864
aa(lp4
I9
aI390
aI404
aI438
aI486
aI596
aI607
aI614
aI661
aI682
aI684
aI698
aI700
aI727
aI729
aI735
aI839
aI1033
aa(lp5
I110
aI111
aI127
aI152
aI158
aI175
aI229
aI302
aI378
aI509
aI550
aI665
aI680
aI722
aI805
aI812
aI882
aI895
aI987
aI992
aa(lp6
I25
aI52
aI120
aI149
aI196
aI433
aI528
aI573
aI612
aI617
aI622
aI626
aI629
aI678
aI801
aI827
aI854
aI871
aI983
aa(lp7
I58
aI91
aI117
aI145
aI168
aI270
aI281
aI284
aI325
aI394
aI461
aI471
aI487
aI505
aI552
aI574
aI579
aI594
aI774
aI810
aI973
aI1015
aI1017
aa(lp8
I8
aI90
aI162
aI204
aI207
aI271
aI290
aI370
aI412
aI514
aI577
aI627
aI658
aI670
aI687
aI754
aI789
aI802
aI836
aI842
aI847
aI870
aI887
aI991
aa(lp9
I39
aI45
aI92
aI169
aI187
aI206
aI277
aI282
aI296
aI376
aI398
aI411
aI492
aI507
aI533
aI539
aI610
aI613
aI643
aI663
aI667
aI739
aI820
aI911
aI933
aI943
aI977
aI997
aa(lp10
I37
aI157
aI163
aI183
aI273
aI283
aI297
aI350
aI401
aI705
aI795
aI913
aI967
aI979
aa(lp11
I75
aI108
aI122
aI148
aI189
aI219
aI239
aI309
aI482
aI503
aI515
aI531
aI581
aI634
aI674
aI690
aI728
aI868
aI890
aI996
aI1035
aI1036
aa(lp12
I26
aI96
aI104
aI312
aI361
aI381
aI413
aI455
aI491
aI553
aI580
aI621
aI666
aI699
aI768
aI781
aI793
aI877
aI897
aI919
aI955
aI1031
aa(lp13
I57
aI174
aI216
aI236
aI237
aI240
aI294
aI371
aI417
aI423
aI523
aI554
aI601
aI642
aI650
aI738
aI750
aI755
aI770
aI776
aI956
aa(lp14
I23
aI89
aI116
aI224
aI269
aI298
aI343
aI366
aI448
aI473
aI638
aI640
aI660
aI703
aI730
aI806
aI814
aI834
aI859
aa(lp15
I105
aI124
aI222
aI234
aI399
aI422
aI478
aI556
aI562
aI568
aI671
aI679
aI784
aI1029
aa(lp16
I73
aI78
aI95
aI129
aI188
aI261
aI263
aI335
aI360
aI463
aI501
aI534
aI537
aI611
aI683
aI710
aI711
aI714
aI823
aI880
aI883
aI1027
aa(lp17
I27
aI65
aI68
aI70
aI126
aI134
aI137
aI291
aI299
aI313
aI323
aI344
aI421
aI485
aI675
aI720
aI732
aI762
aI841
aI862
aa(lp18
I33
aI285
aI341
aI589
aI600
aI653
aI681
aI706
aI746
aI818
aI941
aa(lp19
I81
aI99
aI156
aI268
aI333
aI447
aI494
aI547
aI575
aI664
aI688
aI692
aI713
aI721
aI736
aI757
aI804
aI846
aI945
aI953
aI998
aI1006
aa(lp20
I51
aI213
aI232
aI275
aI314
aI338
aI369
aI425
aI520
aI595
aI632
aI669
aI691
aI694
aI696
aI709
aI745
aI824
aI912
aa.